; Function Attrs: mustprogress nofree nounwind memory(read, argmem: readwrite) uwtable
define double @ufmt_getDouble_75(ptr nocapture noundef readonly %fmt, ptr nocapture noundef %status) local_unnamed_addr #10 {
entry:
  %0 = load i32, ptr %status, align 4
  %cmp.i.i = icmp slt i32 %0, 1
  br i1 %cmp.i.i, label %if.end.us.i, label %_ZNK6icu_7511Formattable9getDoubleER10UErrorCode.exit

if.end.us.i:                                      ; preds = %entry, %if.end7.us.i
  %this.tr10.us.i = phi ptr [ %number.i.us.i, %if.end7.us.i ], [ %fmt, %entry ]
  %fType.us.i = getelementptr inbounds i8, ptr %this.tr10.us.i, i64 40
  %1 = load i32, ptr %fType.us.i, align 8
  switch i32 %1, label %sw.default.i [
    i32 2, label %sw.bb.i
    i32 5, label %sw.bb.i
    i32 1, label %sw.bb2.i
    i32 6, label %sw.bb4.us.i
  ]

sw.bb4.us.i:                                      ; preds = %if.end.us.i
  %fValue5.us.i = getelementptr inbounds i8, ptr %this.tr10.us.i, i64 8
  %2 = load ptr, ptr %fValue5.us.i, align 8
  %cmp.us.i = icmp eq ptr %2, null
  br i1 %cmp.us.i, label %if.then6.i, label %if.end7.us.i

if.end7.us.i:                                     ; preds = %sw.bb4.us.i
  %3 = tail call ptr @__dynamic_cast(ptr nonnull %2, ptr nonnull @_ZTIN6icu_757UObjectE, ptr nonnull @_ZTIN6icu_757MeasureE, i64 0) #16
  %cmp.i4.not.us.i = icmp eq ptr %3, null
  %number.i.us.i = getelementptr inbounds i8, ptr %2, i64 8
  br i1 %cmp.i4.not.us.i, label %sw.default.i, label %if.end.us.i

sw.bb.i:                                          ; preds = %if.end.us.i, %if.end.us.i
  %fValue.i = getelementptr inbounds i8, ptr %this.tr10.us.i, i64 8
  %4 = load i64, ptr %fValue.i, align 8
  %conv.i = sitofp i64 %4 to double
  br label %_ZNK6icu_7511Formattable9getDoubleER10UErrorCode.exit

sw.bb2.i:                                         ; preds = %if.end.us.i
  %fValue3.i = getelementptr inbounds i8, ptr %this.tr10.us.i, i64 8
  %5 = load double, ptr %fValue3.i, align 8
  br label %_ZNK6icu_7511Formattable9getDoubleER10UErrorCode.exit

if.then6.i:                                       ; preds = %sw.bb4.us.i
  store i32 7, ptr %status, align 4
  br label %_ZNK6icu_7511Formattable9getDoubleER10UErrorCode.exit

sw.default.i:                                     ; preds = %if.end7.us.i, %if.end.us.i
  store i32 3, ptr %status, align 4
  br label %_ZNK6icu_7511Formattable9getDoubleER10UErrorCode.exit

_ZNK6icu_7511Formattable9getDoubleER10UErrorCode.exit: ; preds = %entry, %sw.bb.i, %sw.bb2.i, %if.then6.i, %sw.default.i
  %retval.0.i = phi double [ 0.000000e+00, %sw.default.i ], [ 0.000000e+00, %if.then6.i ], [ %5, %sw.bb2.i ], [ %conv.i, %sw.bb.i ], [ 0.000000e+00, %entry ]
  ret double %retval.0.i
}